(lp0
F0.9829157175398633
aF0.9829157175398633
aF0.9812393405343945
aF0.9857224443175329
aF0.98125
aF0.9823663253697383
aF0.984036488027366
aF0.9834757834757835
aF0.98125
aF0.9795802609188883
aF0.984036488027366
aF0.9868421052631579
aF0.9823663253697383
aF0.9834851936218679
aF0.9823663253697383
aF0.9851682829435254
aF0.9851682829435254
aF0.9851682829435254
aF0.983494593056346
aF0.9823663253697383
aF0.9823763501989767
aF0.9818181818181818
aF0.9823763501989767
aF0.9829351535836177
aF0.9823763501989767
aF0.9818181818181818
aF0.9818181818181818
aF0.9829254410927718
aF0.9846066134549601
aF0.9857224443175329
aF0.985730593607306
aF0.9818078453666856
aF0.9840455840455841
aF0.9851428571428571
aF0.9851767388825542
aF0.9840546697038725
aF0.9840546697038725
aF0.9873853211009175
aF0.9873925501432664
aF0.9862778730703259
aF0.9862857142857143
aF0.983494593056346
aF0.9829351535836177
aF0.983494593056346
aF0.9823763501989767
aF0.983494593056346
aF0.9851682829435254
aF0.9851767388825542
aF0.9851767388825542
aF0.9829351535836177
aF0.9823763501989767
aF0.9818181818181818
aF0.9829351535836177
aF0.9829351535836177
aF0.9818181818181818
aF0.9818181818181818
aF0.9829254410927718
aF0.9834851936218679
aF0.9840546697038725
aF0.9851682829435254
aF0.9862935465448315
aF0.984036488027366
aF0.9846153846153847
aF0.9851682829435254
aF0.9846153846153847
aF0.983494593056346
aF0.9801474758933636
aF0.983494593056346
aF0.9823763501989767
aF0.9823763501989767
aF0.9823863636363637
aF0.9840546697038725
aF0.9829254410927718
aF0.9834851936218679
aF0.9801474758933636
aF0.9829351535836177
aF0.9835039817974972
aF0.983494593056346
aF0.983494593056346
aF0.983494593056346
aF0.983494593056346
aF0.9818078453666856
aF0.9834851936218679
aF0.983494593056346
aF0.983494593056346
aF0.9823763501989767
aF0.9818181818181818
aF0.9823763501989767
aF0.9823763501989767
aF0.9840455840455841
aF0.9823763501989767
aF0.983494593056346
aF0.9840546697038725
aF0.9829351535836177
aF0.9840546697038725
aF0.9846153846153847
aF0.9846153846153847
aF0.9846153846153847
aF0.9846153846153847
aF0.9851767388825542
aF0.9851767388825542
aF0.9829351535836177
a.