(lp0
F0.9959607616849394
aF0.9959607616849394
aF0.9959607616849394
aF0.9959607616849394
aF0.996537795729948
aF0.996537795729948
aF0.9959607616849394
aF0.9959607616849394
aF0.996537795729948
aF0.996537795729948
aF0.9959607616849394
aF0.9953837276399308
aF0.996537795729948
aF0.996537795729948
aF0.996537795729948
aF0.996537795729948
aF0.996537795729948
aF0.996537795729948
aF0.9971148297749567
aF0.996537795729948
aF0.9971148297749567
aF0.9971148297749567
aF0.9971148297749567
aF0.9971148297749567
aF0.9971148297749567
aF0.9971148297749567
aF0.9971148297749567
aF0.996537795729948
aF0.996537795729948
aF0.9959607616849394
aF0.996537795729948
aF0.996537795729948
aF0.996537795729948
aF0.9948066935949221
aF0.9971148297749567
aF0.9971148297749567
aF0.9971148297749567
aF0.9936526255049047
aF0.9942296595499135
aF0.9953837276399308
aF0.9959607616849394
aF0.9971148297749567
aF0.9971148297749567
aF0.9971148297749567
aF0.9971148297749567
aF0.9971148297749567
aF0.996537795729948
aF0.9971148297749567
aF0.9971148297749567
aF0.9971148297749567
aF0.9971148297749567
aF0.9971148297749567
aF0.9971148297749567
aF0.9971148297749567
aF0.9971148297749567
aF0.9971148297749567
aF0.996537795729948
aF0.996537795729948
aF0.9971148297749567
aF0.996537795729948
aF0.996537795729948
aF0.9959607616849394
aF0.9971148297749567
aF0.996537795729948
aF0.9971148297749567
aF0.9971148297749567
aF0.9971148297749567
aF0.9971148297749567
aF0.9971148297749567
aF0.9971148297749567
aF0.9976918638199653
aF0.9971148297749567
aF0.996537795729948
aF0.996537795729948
aF0.9971148297749567
aF0.9971148297749567
aF0.9976918638199653
aF0.9971148297749567
aF0.9971148297749567
aF0.9971148297749567
aF0.9971148297749567
aF0.996537795729948
aF0.996537795729948
aF0.9971148297749567
aF0.9971148297749567
aF0.9971148297749567
aF0.9971148297749567
aF0.9971148297749567
aF0.9971148297749567
aF0.996537795729948
aF0.9971148297749567
aF0.9971148297749567
aF0.9971148297749567
aF0.9971148297749567
aF0.9971148297749567
aF0.9971148297749567
aF0.9971148297749567
aF0.9971148297749567
aF0.9971148297749567
aF0.9971148297749567
aF0.9971148297749567
aF0.9971148297749567
a.